; Function Attrs: inlinehint mustprogress nounwind uwtable
define internal void @_ZN5boost9unit_test12_GLOBAL__N_122results_collector_implD2Ev(ptr noundef nonnull align 8 dereferenceable(48) %0) unnamed_addr #10 align 2 personality ptr @__gxx_personality_v0 {
  %2 = getelementptr inbounds i8, ptr %0, i64 16
  %3 = load ptr, ptr %2, align 8, !tbaa !21
  invoke void @_ZNSt8_Rb_treeImSt4pairIKmN5boost9unit_test12test_resultsEESt10_Select1stIS5_ESt4lessImESaIS5_EE8_M_eraseEPSt13_Rb_tree_nodeIS5_E(ptr noundef nonnull align 8 dereferenceable(48) %0, ptr noundef %3)
          to label %_ZNSt3mapImN5boost9unit_test12test_resultsESt4lessImESaISt4pairIKmS2_EEED2Ev.exit unwind label %4

4:                                                ; preds = %1
  %5 = landingpad { ptr, i32 }
          catch ptr null
  %6 = extractvalue { ptr, i32 } %5, 0
  tail call void @__clang_call_terminate(ptr %6) #22
  unreachable

_ZNSt3mapImN5boost9unit_test12test_resultsESt4lessImESaISt4pairIKmS2_EEED2Ev.exit: ; preds = %1
  ret void
}